(dp0
S'clientCustomerId'
p1
S'860-734-9136'
p2
sS'developerToken'
p3
S'39Cy6b8b-U-khYZ7EJT3Tg'
p4
sS'clientEmail'
p5
S''
p6
sS'userAgent'
p7
S'AwApi-Python-15.0.1|test'
p8
sS'password'
p9
S'JohnChase'
p10
sS'email'
p11
S'john@sfshuttletours.com'
p12
s.