(dp0
S'request_log'
p1
S'y'
p2
sS'log_home'
p3
S'/home/sfst/work/sfst/src/sfst/administration/logs'
p4
sS'xml_parser'
p5
S'2'
p6
sS'xml_log'
p7
g2
sS'debug'
p8
g2
sS'home'
p9
S'/home/sfst/work/sfst/src/sfst/administration'
p10
s.