(dp0
S'clientCustomerId'
p1
S'628-078-4041'
p2
sS'developerToken'
p3
S'WwYE5J9ZlMs46IHfAZL8Dg'
p4
sS'clientEmail'
p5
S''
p6
sS'userAgent'
p7
S'AwApi-Python-15.0.1|test'
p8
sS'password'
p9
S'leavemealone1'
p10
sS'email'
p11
S'dannys.testad@gmail.com'
p12
s.